; Function Attrs: nounwind uwtable
define dso_local range(i32 -232, 1) i32 @onig_builtin_count(ptr noundef readonly captures(none) %0, ptr noundef readnone captures(none) %1) local_unnamed_addr #4 {
  %3 = getelementptr inbounds nuw i8, ptr %0, i64 72
  %4 = load ptr, ptr %3, align 8, !tbaa !43
  %5 = getelementptr inbounds nuw i8, ptr %4, i64 72
  %6 = load ptr, ptr %5, align 8, !tbaa !48
  %7 = getelementptr inbounds nuw i8, ptr %0, i64 8
  %8 = load i32, ptr %7, align 8, !tbaa !52
  %9 = getelementptr inbounds nuw i8, ptr %6, i64 56
  %10 = load ptr, ptr %9, align 8, !tbaa !41
  %11 = sext i32 %8 to i64
  %12 = getelementptr %struct.CalloutData, ptr %10, i64 %11
  %13 = getelementptr i8, ptr %12, i64 -128
  %14 = load i32, ptr %13, align 8, !tbaa !53
  %15 = getelementptr inbounds nuw i8, ptr %6, i64 48
  %16 = load i32, ptr %15, align 8, !tbaa !40
  %.not.i = icmp eq i32 %14, %16
  br i1 %.not.i, label %onig_check_callout_data_and_clear_old_values.exit, label %17

17:                                               ; preds = %2
  tail call void @llvm.memset.p0.i64(ptr noundef nonnull align 8 dereferenceable(128) %13, i8 0, i64 128, i1 false)
  %18 = load i32, ptr %15, align 8, !tbaa !40
  store i32 %18, ptr %13, align 8, !tbaa !53
  br label %onig_check_callout_data_and_clear_old_values.exit

onig_check_callout_data_and_clear_old_values.exit: ; preds = %2, %17
  %19 = tail call i32 @onig_builtin_total_count(ptr noundef nonnull %0, ptr poison)
  ret i32 %19
}